; Function Attrs: mustprogress nounwind uwtable
define hidden void @_ZN4cvc58internal6theory5arith6linear21FarkasConflictBuilder5resetEv(ptr noundef nonnull align 8 captures(none) dereferenceable(58) initializes((48, 57)) %0) local_unnamed_addr #6 align 2 personality ptr @__gxx_personality_v0 {
  %2 = getelementptr inbounds nuw i8, ptr %0, i64 48
  store ptr null, ptr %2, align 8, !tbaa !82
  %3 = getelementptr inbounds nuw i8, ptr %0, i64 24
  %4 = load ptr, ptr %3, align 8, !tbaa !84
  %5 = getelementptr inbounds nuw i8, ptr %0, i64 32
  %6 = load ptr, ptr %5, align 8, !tbaa !85
  %.not.i.i = icmp eq ptr %6, %4
  br i1 %.not.i.i, label %_ZNSt6vectorIPKN4cvc58internal6theory5arith6linear10ConstraintESaIS7_EE5clearEv.exit, label %7

7:                                                ; preds = %1
  store ptr %4, ptr %5, align 8, !tbaa !85
  br label %_ZNSt6vectorIPKN4cvc58internal6theory5arith6linear10ConstraintESaIS7_EE5clearEv.exit

_ZNSt6vectorIPKN4cvc58internal6theory5arith6linear10ConstraintESaIS7_EE5clearEv.exit: ; preds = %1, %7
  %8 = getelementptr inbounds nuw i8, ptr %0, i64 56
  store i8 0, ptr %8, align 8, !tbaa !83
  %9 = getelementptr inbounds nuw i8, ptr %0, i64 57
  %10 = load i8, ptr %9, align 1, !tbaa !68, !range !86, !noundef !87
  %11 = trunc nuw i8 %10 to i1
  br i1 %11, label %12, label %_ZNSt6vectorIN4cvc58internal8RationalESaIS2_EE5clearEv.exit

12:                                               ; preds = %_ZNSt6vectorIPKN4cvc58internal6theory5arith6linear10ConstraintESaIS7_EE5clearEv.exit
  %13 = load ptr, ptr %0, align 8, !tbaa !88
  %14 = getelementptr inbounds nuw i8, ptr %0, i64 8
  %15 = load ptr, ptr %14, align 8, !tbaa !89
  %.not.i.i1 = icmp eq ptr %15, %13
  br i1 %.not.i.i1, label %_ZNSt6vectorIN4cvc58internal8RationalESaIS2_EE5clearEv.exit, label %.lr.ph.i.i.i.i.i

.lr.ph.i.i.i.i.i:                                 ; preds = %12, %_ZSt8_DestroyIN4cvc58internal8RationalEEvPT_.exit.i.i.i.i.i
  %.05.i.i.i.i.i = phi ptr [ %19, %_ZSt8_DestroyIN4cvc58internal8RationalEEvPT_.exit.i.i.i.i.i ], [ %13, %12 ]
  invoke void @__gmpq_clear(ptr noundef nonnull align 8 dereferenceable(32) %.05.i.i.i.i.i)
          to label %_ZSt8_DestroyIN4cvc58internal8RationalEEvPT_.exit.i.i.i.i.i unwind label %16

16:                                               ; preds = %.lr.ph.i.i.i.i.i
  %17 = landingpad { ptr, i32 }
          catch ptr null
  %18 = extractvalue { ptr, i32 } %17, 0
  tail call void @__clang_call_terminate(ptr %18) #22
  unreachable

_ZSt8_DestroyIN4cvc58internal8RationalEEvPT_.exit.i.i.i.i.i: ; preds = %.lr.ph.i.i.i.i.i
  %19 = getelementptr inbounds nuw i8, ptr %.05.i.i.i.i.i, i64 32
  %.not.i.i.i.i.i = icmp eq ptr %19, %15
  br i1 %.not.i.i.i.i.i, label %_ZSt8_DestroyIPN4cvc58internal8RationalES2_EvT_S4_RSaIT0_E.exit.i.i, label %.lr.ph.i.i.i.i.i, !llvm.loop !90

_ZSt8_DestroyIPN4cvc58internal8RationalES2_EvT_S4_RSaIT0_E.exit.i.i: ; preds = %_ZSt8_DestroyIN4cvc58internal8RationalEEvPT_.exit.i.i.i.i.i
  store ptr %13, ptr %14, align 8, !tbaa !89
  br label %_ZNSt6vectorIN4cvc58internal8RationalESaIS2_EE5clearEv.exit

_ZNSt6vectorIN4cvc58internal8RationalESaIS2_EE5clearEv.exit: ; preds = %_ZSt8_DestroyIPN4cvc58internal8RationalES2_EvT_S4_RSaIT0_E.exit.i.i, %12, %_ZNSt6vectorIPKN4cvc58internal6theory5arith6linear10ConstraintESaIS7_EE5clearEv.exit
  ret void
}